target datalayout = "e-m:e-p270:32:32-p271:32:32-p272:64:64-i64:64-i128:128-f80:128-n8:16:32:64-S128"
target triple = "x86_64-pc-linux-gnu"

%class.QColor = type <{ i32, %"union.QColor::CT", [2 x i8] }>
%"union.QColor::CT" = type { %struct.anon }
%struct.anon = type { i16, i16, i16, i16, i16 }
%class.ByteViewText = type { %class.QAbstractScrollArea, %class.IDataPrintable, ptr, %class.QByteArray, %class.QColor, %class.QColor, i32, %class.QMenu, i32, i32, i32, i32, i32, i32, i32, i32, i8, i8, i8, i32, i32, i32, %class.QList, i8, %class.QList.5, ptr, ptr, ptr, ptr, ptr, ptr, ptr, ptr }
%class.QAbstractScrollArea = type { %class.QFrame }
%class.QFrame = type { %class.QWidget }
%class.QWidget = type { %class.QObject, %class.QPaintDevice.base, ptr }
%class.QObject = type { ptr, %class.QScopedPointer }
%class.QScopedPointer = type { ptr }
%class.QPaintDevice.base = type <{ ptr, i16 }>
%class.IDataPrintable = type { ptr }
%class.QByteArray = type { %struct.QArrayDataPointer }
%struct.QArrayDataPointer = type { ptr, ptr, i64 }
%class.QMenu = type { %class.QWidget }
%class.QList = type { %struct.QArrayDataPointer.4 }
%struct.QArrayDataPointer.4 = type { ptr, ptr, i64 }
%class.QList.5 = type { %struct.QArrayDataPointer.8 }
%struct.QArrayDataPointer.8 = type { ptr, ptr, i64 }
%class.QFont = type <{ %class.QExplicitlySharedDataPointer, i32, [4 x i8] }>
%class.QExplicitlySharedDataPointer = type { ptr }

; Function Attrs: mustprogress uwtable
define void @_ZN12ByteViewText16setMonospaceFontERK5QFont(ptr noundef nonnull align 8 dereferenceable(328) %0, ptr noundef nonnull align 8 dereferenceable(12) %1) #0 align 2 personality ptr @__gxx_personality_v0 {
  %3 = alloca ptr, align 8
  %4 = alloca ptr, align 8
  %5 = alloca %class.QFont, align 8
  %6 = alloca ptr, align 8
  %7 = alloca i32, align 4
  store ptr %0, ptr %3, align 8
  store ptr %1, ptr %4, align 8
  %8 = load ptr, ptr %3, align 8
  %9 = load ptr, ptr %4, align 8
  call void @_ZN5QFontC1ERKS_(ptr noundef nonnull align 8 dereferenceable(12) %5, ptr noundef nonnull align 8 dereferenceable(12) %9)
  invoke void @_ZN7QWidget7setFontERK5QFont(ptr noundef nonnull align 8 dereferenceable(40) %8, ptr noundef nonnull align 8 dereferenceable(12) %5)
          to label %10 unwind label %22

10:                                               ; preds = %2
  %11 = invoke noundef ptr @_ZNK19QAbstractScrollArea8viewportEv(ptr noundef nonnull align 8 dereferenceable(40) %8)
          to label %12 unwind label %22

12:                                               ; preds = %10
  invoke void @_ZN7QWidget7setFontERK5QFont(ptr noundef nonnull align 8 dereferenceable(40) %11, ptr noundef nonnull align 8 dereferenceable(12) %5)
          to label %13 unwind label %22

13:                                               ; preds = %12
  %14 = getelementptr inbounds %class.ByteViewText, ptr %8, i32 0, i32 2
  %15 = load ptr, ptr %14, align 8
  invoke void @_ZN11QTextLayout7setFontERK5QFont(ptr noundef nonnull align 8 dereferenceable(8) %15, ptr noundef nonnull align 8 dereferenceable(12) %5)
          to label %16 unwind label %22

16:                                               ; preds = %13
  invoke void @_ZN12ByteViewText19updateLayoutMetricsEv(ptr noundef nonnull align 8 dereferenceable(328) %8)
          to label %17 unwind label %22

17:                                               ; preds = %16
  invoke void @_ZN12ByteViewText16updateScrollbarsEv(ptr noundef nonnull align 8 dereferenceable(328) %8)
          to label %18 unwind label %22

18:                                               ; preds = %17
  %19 = invoke noundef ptr @_ZNK19QAbstractScrollArea8viewportEv(ptr noundef nonnull align 8 dereferenceable(40) %8)
          to label %20 unwind label %22

20:                                               ; preds = %18
  invoke void @_ZN7QWidget6updateEv(ptr noundef nonnull align 8 dereferenceable(40) %19)
          to label %21 unwind label %22

21:                                               ; preds = %20
  call void @_ZN5QFontD1Ev(ptr noundef nonnull align 8 dereferenceable(12) %5) #14
  ret void

22:                                               ; preds = %20, %18, %17, %16, %13, %12, %10, %2
  %23 = landingpad { ptr, i32 }
          cleanup
  %24 = extractvalue { ptr, i32 } %23, 0
  store ptr %24, ptr %6, align 8
  %25 = extractvalue { ptr, i32 } %23, 1
  store i32 %25, ptr %7, align 4
  call void @_ZN5QFontD1Ev(ptr noundef nonnull align 8 dereferenceable(12) %5) #14
  br label %26

26:                                               ; preds = %22
  %27 = load ptr, ptr %6, align 8
  %28 = load i32, ptr %7, align 4
  %29 = insertvalue { ptr, i32 } poison, ptr %27, 0
  %30 = insertvalue { ptr, i32 } %29, i32 %28, 1
  resume { ptr, i32 } %30
}