; Function Attrs: mustprogress uwtable
define void @_ZN12ByteViewText16setMonospaceFontERK5QFont(ptr noundef nonnull align 8 dereferenceable(328) %0, ptr noundef nonnull align 8 dereferenceable(12) %1) local_unnamed_addr #0 align 2 personality ptr @__gxx_personality_v0 {
  %3 = alloca %class.QFont, align 8
  call void @_ZN5QFontC1ERKS_(ptr noundef nonnull align 8 dereferenceable(12) %3, ptr noundef nonnull align 8 dereferenceable(12) %1)
  invoke void @_ZN7QWidget7setFontERK5QFont(ptr noundef nonnull align 8 dereferenceable(40) %0, ptr noundef nonnull align 8 dereferenceable(12) %3)
          to label %4 unwind label %16

4:                                                ; preds = %2
  %5 = invoke noundef ptr @_ZNK19QAbstractScrollArea8viewportEv(ptr noundef nonnull align 8 dereferenceable(40) %0)
          to label %6 unwind label %16

6:                                                ; preds = %4
  invoke void @_ZN7QWidget7setFontERK5QFont(ptr noundef nonnull align 8 dereferenceable(40) %5, ptr noundef nonnull align 8 dereferenceable(12) %3)
          to label %7 unwind label %16

7:                                                ; preds = %6
  %8 = getelementptr inbounds i8, ptr %0, i64 48
  %9 = load ptr, ptr %8, align 8
  invoke void @_ZN11QTextLayout7setFontERK5QFont(ptr noundef nonnull align 8 dereferenceable(8) %9, ptr noundef nonnull align 8 dereferenceable(12) %3)
          to label %10 unwind label %16

10:                                               ; preds = %7
  invoke void @_ZN12ByteViewText19updateLayoutMetricsEv(ptr noundef nonnull align 8 dereferenceable(328) %0)
          to label %11 unwind label %16

11:                                               ; preds = %10
  invoke void @_ZN12ByteViewText16updateScrollbarsEv(ptr noundef nonnull align 8 dereferenceable(328) %0)
          to label %12 unwind label %16

12:                                               ; preds = %11
  %13 = invoke noundef ptr @_ZNK19QAbstractScrollArea8viewportEv(ptr noundef nonnull align 8 dereferenceable(40) %0)
          to label %14 unwind label %16

14:                                               ; preds = %12
  invoke void @_ZN7QWidget6updateEv(ptr noundef nonnull align 8 dereferenceable(40) %13)
          to label %15 unwind label %16

15:                                               ; preds = %14
  call void @_ZN5QFontD1Ev(ptr noundef nonnull align 8 dereferenceable(12) %3) #22
  ret void

16:                                               ; preds = %14, %12, %11, %10, %7, %6, %4, %2
  %17 = landingpad { ptr, i32 }
          cleanup
  call void @_ZN5QFontD1Ev(ptr noundef nonnull align 8 dereferenceable(12) %3) #22
  resume { ptr, i32 } %17
}